target datalayout = "e-m:e-p270:32:32-p271:32:32-p272:64:64-i64:64-i128:128-f80:128-n8:16:32:64-S128"
target triple = "x86_64-pc-linux-gnu"

@.str.471 = private unnamed_addr constant [20 x i8] c"FILE TYPE NAME: %s\0A\00", align 1
@.str.472 = private unnamed_addr constant [25 x i8] c"FILE SIGNATURE TYPE: %s\0A\00", align 1
@.str.473 = private unnamed_addr constant [23 x i8] c"FILE MAGIC OFFSET: %s\0A\00", align 1
@.str.474 = private unnamed_addr constant [20 x i8] c"FILE MAGIC HEX: %s\0A\00", align 1
@.str.475 = private unnamed_addr constant [21 x i8] c"FILE MAGIC DECODED:\0A\00", align 1
@.str.476 = private unnamed_addr constant [24 x i8] c"FILE TYPE REQUIRED: %s\0A\00", align 1
@.str.477 = private unnamed_addr constant [24 x i8] c"FILE TYPE DETECTED: %s\0A\00", align 1
@.str.478 = private unnamed_addr constant [18 x i8] c"FTM FLEVEL: >=%s\0A\00", align 1
@.str.479 = private unnamed_addr constant [20 x i8] c"FTM FLEVEL: %s..%s\0A\00", align 1

; Function Attrs: nounwind uwtable
define internal i32 @decodeftm(ptr noundef %0, i32 noundef %1) #0 {
  %3 = alloca ptr, align 8
  %4 = alloca i32, align 4
  store ptr %0, ptr %3, align 8
  store i32 %1, ptr %4, align 4
  %5 = load ptr, ptr %3, align 8
  %6 = getelementptr inbounds ptr, ptr %5, i64 3
  %7 = load ptr, ptr %6, align 8
  call void (i32, ptr, ...) @mprintf(i32 noundef 0, ptr noundef @.str.471, ptr noundef %7)
  %8 = load ptr, ptr %3, align 8
  %9 = getelementptr inbounds ptr, ptr %8, i64 0
  %10 = load ptr, ptr %9, align 8
  call void (i32, ptr, ...) @mprintf(i32 noundef 0, ptr noundef @.str.472, ptr noundef %10)
  %11 = load ptr, ptr %3, align 8
  %12 = getelementptr inbounds ptr, ptr %11, i64 1
  %13 = load ptr, ptr %12, align 8
  call void (i32, ptr, ...) @mprintf(i32 noundef 0, ptr noundef @.str.473, ptr noundef %13)
  %14 = load ptr, ptr %3, align 8
  %15 = getelementptr inbounds ptr, ptr %14, i64 2
  %16 = load ptr, ptr %15, align 8
  call void (i32, ptr, ...) @mprintf(i32 noundef 0, ptr noundef @.str.474, ptr noundef %16)
  call void (i32, ptr, ...) @mprintf(i32 noundef 0, ptr noundef @.str.475)
  %17 = load ptr, ptr %3, align 8
  %18 = getelementptr inbounds ptr, ptr %17, i64 2
  %19 = load ptr, ptr %18, align 8
  %20 = call i32 @decodehex(ptr noundef %19)
  %21 = load ptr, ptr %3, align 8
  %22 = getelementptr inbounds ptr, ptr %21, i64 4
  %23 = load ptr, ptr %22, align 8
  call void (i32, ptr, ...) @mprintf(i32 noundef 0, ptr noundef @.str.476, ptr noundef %23)
  %24 = load ptr, ptr %3, align 8
  %25 = getelementptr inbounds ptr, ptr %24, i64 5
  %26 = load ptr, ptr %25, align 8
  call void (i32, ptr, ...) @mprintf(i32 noundef 0, ptr noundef @.str.477, ptr noundef %26)
  %27 = load i32, ptr %4, align 4
  %28 = icmp eq i32 %27, 7
  br i1 %28, label %29, label %33

29:                                               ; preds = %2
  %30 = load ptr, ptr %3, align 8
  %31 = getelementptr inbounds ptr, ptr %30, i64 6
  %32 = load ptr, ptr %31, align 8
  call void (i32, ptr, ...) @mprintf(i32 noundef 0, ptr noundef @.str.478, ptr noundef %32)
  br label %44

33:                                               ; preds = %2
  %34 = load i32, ptr %4, align 4
  %35 = icmp eq i32 %34, 8
  br i1 %35, label %36, label %43

36:                                               ; preds = %33
  %37 = load ptr, ptr %3, align 8
  %38 = getelementptr inbounds ptr, ptr %37, i64 6
  %39 = load ptr, ptr %38, align 8
  %40 = load ptr, ptr %3, align 8
  %41 = getelementptr inbounds ptr, ptr %40, i64 7
  %42 = load ptr, ptr %41, align 8
  call void (i32, ptr, ...) @mprintf(i32 noundef 0, ptr noundef @.str.479, ptr noundef %39, ptr noundef %42)
  br label %43

43:                                               ; preds = %36, %33
  br label %44

44:                                               ; preds = %43, %29
  ret i32 0
}