; Function Attrs: nounwind uwtable
define internal fastcc void @decodeftm(ptr nocapture noundef readonly %0, i32 noundef %1) unnamed_addr #0 {
  %3 = getelementptr inbounds i8, ptr %0, i64 24
  %4 = load ptr, ptr %3, align 8
  tail call void (i32, ptr, ...) @mprintf(i32 noundef 0, ptr noundef nonnull @.str.471, ptr noundef %4) #25
  %5 = load ptr, ptr %0, align 8
  tail call void (i32, ptr, ...) @mprintf(i32 noundef 0, ptr noundef nonnull @.str.472, ptr noundef %5) #25
  %6 = getelementptr inbounds i8, ptr %0, i64 8
  %7 = load ptr, ptr %6, align 8
  tail call void (i32, ptr, ...) @mprintf(i32 noundef 0, ptr noundef nonnull @.str.473, ptr noundef %7) #25
  %8 = getelementptr inbounds i8, ptr %0, i64 16
  %9 = load ptr, ptr %8, align 8
  tail call void (i32, ptr, ...) @mprintf(i32 noundef 0, ptr noundef nonnull @.str.474, ptr noundef %9) #25
  tail call void (i32, ptr, ...) @mprintf(i32 noundef 0, ptr noundef nonnull @.str.475) #25
  %10 = load ptr, ptr %8, align 8
  tail call fastcc void @decodehex(ptr noundef %10)
  %11 = getelementptr inbounds i8, ptr %0, i64 32
  %12 = load ptr, ptr %11, align 8
  tail call void (i32, ptr, ...) @mprintf(i32 noundef 0, ptr noundef nonnull @.str.476, ptr noundef %12) #25
  %13 = getelementptr inbounds i8, ptr %0, i64 40
  %14 = load ptr, ptr %13, align 8
  tail call void (i32, ptr, ...) @mprintf(i32 noundef 0, ptr noundef nonnull @.str.477, ptr noundef %14) #25
  switch i32 %1, label %23 [
    i32 7, label %15
    i32 8, label %18
  ]

15:                                               ; preds = %2
  %16 = getelementptr inbounds i8, ptr %0, i64 48
  %17 = load ptr, ptr %16, align 8
  tail call void (i32, ptr, ...) @mprintf(i32 noundef 0, ptr noundef nonnull @.str.478, ptr noundef %17) #25
  br label %23

18:                                               ; preds = %2
  %19 = getelementptr inbounds i8, ptr %0, i64 48
  %20 = load ptr, ptr %19, align 8
  %21 = getelementptr inbounds i8, ptr %0, i64 56
  %22 = load ptr, ptr %21, align 8
  tail call void (i32, ptr, ...) @mprintf(i32 noundef 0, ptr noundef nonnull @.str.479, ptr noundef %20, ptr noundef %22) #25
  br label %23

23:                                               ; preds = %2, %18, %15
  ret void
}